target datalayout = "e-m:e-p270:32:32-p271:32:32-p272:64:64-i64:64-i128:128-f80:128-n8:16:32:64-S128"
target triple = "x86_64-pc-linux-gnu"

%struct.H5T_t = type { %struct.H5O_shared_t, ptr, %struct.H5O_loc_t, %struct.H5G_name_t, ptr }
%struct.H5O_shared_t = type { i32, ptr, i32, %union.anon }
%union.anon = type { %struct.H5O_mesg_loc_t }
%struct.H5O_mesg_loc_t = type { i32, i64 }
%struct.H5O_loc_t = type { ptr, i64, i8 }
%struct.H5G_name_t = type { ptr, ptr, i32 }
%struct.H5T_shared_t = type { i64, i32, i32, i64, i32, i8, ptr, ptr, %union.anon.0 }
%union.anon.0 = type { %struct.H5T_array_t }
%struct.H5T_array_t = type { i64, i32, [32 x i64] }
%struct.H5T_atomic_t = type { i32, i64, i64, i32, i32, %union.anon.1 }
%union.anon.1 = type { %struct.anon.2 }
%struct.anon.2 = type { i64, i64, i64, i64, i64, i64, i32, i32 }

@H5_libinit_g = external global i8, align 1
@H5_libterm_g = external global i8, align 1
@.str = private unnamed_addr constant [100 x i8] c"generated/home/dtcxzyw/WorkSpace/Projects/compilers/llvm-opt-benchmark/bench/hdf5/hdf5/src/H5Tpad.c\00", align 1
@__func__.H5Tget_pad = private unnamed_addr constant [11 x i8] c"H5Tget_pad\00", align 1
@H5E_FUNC_g = external global i64, align 8
@H5E_CANTINIT_g = external global i64, align 8
@.str.1 = private unnamed_addr constant [30 x i8] c"library initialization failed\00", align 1
@H5E_CANTSET_g = external global i64, align 8
@.str.2 = private unnamed_addr constant [22 x i8] c"can't set API context\00", align 1
@H5E_ARGS_g = external global i64, align 8
@H5E_BADTYPE_g = external global i64, align 8
@.str.3 = private unnamed_addr constant [16 x i8] c"not a data type\00", align 1
@H5E_DATATYPE_g = external global i64, align 8
@H5E_UNSUPPORTED_g = external global i64, align 8
@.str.4 = private unnamed_addr constant [46 x i8] c"operation not defined for specified data type\00", align 1

; Function Attrs: nounwind uwtable
define i32 @H5Tget_pad(i64 noundef %0, ptr noundef %1, ptr noundef %2) #0 {
  %4 = alloca i64, align 8
  %5 = alloca ptr, align 8
  %6 = alloca ptr, align 8
  %7 = alloca ptr, align 8
  %8 = alloca i32, align 4
  %9 = alloca i8, align 1
  %10 = alloca i8, align 1
  store i64 %0, ptr %4, align 8
  store ptr %1, ptr %5, align 8
  store ptr %2, ptr %6, align 8
  store ptr null, ptr %7, align 8
  store i32 0, ptr %8, align 4
  store i8 0, ptr %9, align 1
  store i8 0, ptr %10, align 1
  %11 = load i8, ptr @H5_libinit_g, align 1
  %12 = trunc i8 %11 to i1
  br i1 %12, label %17, label %13

13:                                               ; preds = %3
  %14 = load i8, ptr @H5_libterm_g, align 1
  %15 = trunc i8 %14 to i1
  %16 = xor i1 %15, true
  br label %17

17:                                               ; preds = %13, %3
  %18 = phi i1 [ false, %3 ], [ %16, %13 ]
  %19 = xor i1 %18, true
  %20 = xor i1 %19, true
  %21 = zext i1 %20 to i32
  %22 = sext i32 %21 to i64
  %23 = icmp ne i64 %22, 0
  br i1 %23, label %24, label %48

24:                                               ; preds = %17
  %25 = call i32 @H5_init_library()
  %26 = icmp slt i32 %25, 0
  %27 = xor i1 %26, true
  %28 = xor i1 %27, true
  %29 = zext i1 %28 to i32
  %30 = sext i32 %29 to i64
  %31 = icmp ne i64 %30, 0
  br i1 %31, label %32, label %47

32:                                               ; preds = %24
  br label %33

33:                                               ; preds = %32
  br label %34

34:                                               ; preds = %33
  br label %35

35:                                               ; preds = %34
  %36 = load i64, ptr @H5E_FUNC_g, align 8
  %37 = load i64, ptr @H5E_CANTINIT_g, align 8
  %38 = call i32 (ptr, ptr, i32, i64, i64, ptr, ...) @H5E_printf_stack(ptr noundef @.str, ptr noundef @__func__.H5Tget_pad, i32 noundef 42, i64 noundef %36, i64 noundef %37, ptr noundef @.str.1)
  br label %39

39:                                               ; preds = %35
  store i8 1, ptr %10, align 1
  %40 = load i8, ptr %10, align 1
  %41 = trunc i8 %40 to i1
  %42 = zext i1 %41 to i8
  store i8 %42, ptr %10, align 1
  br label %43

43:                                               ; preds = %39
  br label %44

44:                                               ; preds = %43
  store i32 -1, ptr %8, align 4
  br label %186

45:                                               ; No predecessors!
  br label %46

46:                                               ; preds = %45
  br label %47

47:                                               ; preds = %46, %24
  br label %48

48:                                               ; preds = %47, %17
  %49 = call i32 @H5CX_push()
  %50 = icmp slt i32 %49, 0
  %51 = xor i1 %50, true
  %52 = xor i1 %51, true
  %53 = zext i1 %52 to i32
  %54 = sext i32 %53 to i64
  %55 = icmp ne i64 %54, 0
  br i1 %55, label %56, label %71

56:                                               ; preds = %48
  br label %57

57:                                               ; preds = %56
  br label %58

58:                                               ; preds = %57
  br label %59

59:                                               ; preds = %58
  %60 = load i64, ptr @H5E_FUNC_g, align 8
  %61 = load i64, ptr @H5E_CANTSET_g, align 8
  %62 = call i32 (ptr, ptr, i32, i64, i64, ptr, ...) @H5E_printf_stack(ptr noundef @.str, ptr noundef @__func__.H5Tget_pad, i32 noundef 42, i64 noundef %60, i64 noundef %61, ptr noundef @.str.2)
  br label %63

63:                                               ; preds = %59
  store i8 1, ptr %10, align 1
  %64 = load i8, ptr %10, align 1
  %65 = trunc i8 %64 to i1
  %66 = zext i1 %65 to i8
  store i8 %66, ptr %10, align 1
  br label %67

67:                                               ; preds = %63
  br label %68

68:                                               ; preds = %67
  store i32 -1, ptr %8, align 4
  br label %186

69:                                               ; No predecessors!
  br label %70

70:                                               ; preds = %69
  br label %72

71:                                               ; preds = %48
  store i8 1, ptr %9, align 1
  br label %72

72:                                               ; preds = %71, %70
  %73 = call i32 @H5E_clear_stack()
  %74 = load i64, ptr %4, align 8
  %75 = call ptr @H5I_object_verify(i64 noundef %74, i32 noundef 3)
  store ptr %75, ptr %7, align 8
  %76 = icmp eq ptr null, %75
  br i1 %76, label %77, label %92

77:                                               ; preds = %72
  br label %78

78:                                               ; preds = %77
  br label %79

79:                                               ; preds = %78
  br label %80

80:                                               ; preds = %79
  %81 = load i64, ptr @H5E_ARGS_g, align 8
  %82 = load i64, ptr @H5E_BADTYPE_g, align 8
  %83 = call i32 (ptr, ptr, i32, i64, i64, ptr, ...) @H5E_printf_stack(ptr noundef @.str, ptr noundef @__func__.H5Tget_pad, i32 noundef 46, i64 noundef %81, i64 noundef %82, ptr noundef @.str.3)
  br label %84

84:                                               ; preds = %80
  store i8 1, ptr %10, align 1
  %85 = load i8, ptr %10, align 1
  %86 = trunc i8 %85 to i1
  %87 = zext i1 %86 to i8
  store i8 %87, ptr %10, align 1
  br label %88

88:                                               ; preds = %84
  br label %89

89:                                               ; preds = %88
  store i32 -1, ptr %8, align 4
  br label %186

90:                                               ; No predecessors!
  br label %91

91:                                               ; preds = %90
  br label %92

92:                                               ; preds = %91, %72
  br label %93

93:                                               ; preds = %100, %92
  %94 = load ptr, ptr %7, align 8
  %95 = getelementptr inbounds %struct.H5T_t, ptr %94, i32 0, i32 1
  %96 = load ptr, ptr %95, align 8
  %97 = getelementptr inbounds %struct.H5T_shared_t, ptr %96, i32 0, i32 6
  %98 = load ptr, ptr %97, align 8
  %99 = icmp ne ptr %98, null
  br i1 %99, label %100, label %106

100:                                              ; preds = %93
  %101 = load ptr, ptr %7, align 8
  %102 = getelementptr inbounds %struct.H5T_t, ptr %101, i32 0, i32 1
  %103 = load ptr, ptr %102, align 8
  %104 = getelementptr inbounds %struct.H5T_shared_t, ptr %103, i32 0, i32 6
  %105 = load ptr, ptr %104, align 8
  store ptr %105, ptr %7, align 8
  br label %93

106:                                              ; preds = %93
  %107 = load ptr, ptr %7, align 8
  %108 = getelementptr inbounds %struct.H5T_t, ptr %107, i32 0, i32 1
  %109 = load ptr, ptr %108, align 8
  %110 = getelementptr inbounds %struct.H5T_shared_t, ptr %109, i32 0, i32 2
  %111 = load i32, ptr %110, align 4
  %112 = icmp eq i32 %111, 6
  br i1 %112, label %148, label %113

113:                                              ; preds = %106
  %114 = load ptr, ptr %7, align 8
  %115 = getelementptr inbounds %struct.H5T_t, ptr %114, i32 0, i32 1
  %116 = load ptr, ptr %115, align 8
  %117 = getelementptr inbounds %struct.H5T_shared_t, ptr %116, i32 0, i32 2
  %118 = load i32, ptr %117, align 4
  %119 = icmp eq i32 %118, 8
  br i1 %119, label %148, label %120

120:                                              ; preds = %113
  %121 = load ptr, ptr %7, align 8
  %122 = getelementptr inbounds %struct.H5T_t, ptr %121, i32 0, i32 1
  %123 = load ptr, ptr %122, align 8
  %124 = getelementptr inbounds %struct.H5T_shared_t, ptr %123, i32 0, i32 2
  %125 = load i32, ptr %124, align 4
  %126 = icmp eq i32 %125, 9
  br i1 %126, label %148, label %127

127:                                              ; preds = %120
  %128 = load ptr, ptr %7, align 8
  %129 = getelementptr inbounds %struct.H5T_t, ptr %128, i32 0, i32 1
  %130 = load ptr, ptr %129, align 8
  %131 = getelementptr inbounds %struct.H5T_shared_t, ptr %130, i32 0, i32 2
  %132 = load i32, ptr %131, align 4
  %133 = icmp eq i32 %132, 10
  br i1 %133, label %148, label %134

134:                                              ; preds = %127
  %135 = load ptr, ptr %7, align 8
  %136 = getelementptr inbounds %struct.H5T_t, ptr %135, i32 0, i32 1
  %137 = load ptr, ptr %136, align 8
  %138 = getelementptr inbounds %struct.H5T_shared_t, ptr %137, i32 0, i32 2
  %139 = load i32, ptr %138, align 4
  %140 = icmp eq i32 %139, 7
  br i1 %140, label %148, label %141

141:                                              ; preds = %134
  %142 = load ptr, ptr %7, align 8
  %143 = getelementptr inbounds %struct.H5T_t, ptr %142, i32 0, i32 1
  %144 = load ptr, ptr %143, align 8
  %145 = getelementptr inbounds %struct.H5T_shared_t, ptr %144, i32 0, i32 2
  %146 = load i32, ptr %145, align 4
  %147 = icmp eq i32 %146, 5
  br i1 %147, label %148, label %163

148:                                              ; preds = %141, %134, %127, %120, %113, %106
  br label %149

149:                                              ; preds = %148
  br label %150

150:                                              ; preds = %149
  br label %151

151:                                              ; preds = %150
  %152 = load i64, ptr @H5E_DATATYPE_g, align 8
  %153 = load i64, ptr @H5E_UNSUPPORTED_g, align 8
  %154 = call i32 (ptr, ptr, i32, i64, i64, ptr, ...) @H5E_printf_stack(ptr noundef @.str, ptr noundef @__func__.H5Tget_pad, i32 noundef 50, i64 noundef %152, i64 noundef %153, ptr noundef @.str.4)
  br label %155

155:                                              ; preds = %151
  store i8 1, ptr %10, align 1
  %156 = load i8, ptr %10, align 1
  %157 = trunc i8 %156 to i1
  %158 = zext i1 %157 to i8
  store i8 %158, ptr %10, align 1
  br label %159

159:                                              ; preds = %155
  br label %160

160:                                              ; preds = %159
  store i32 -1, ptr %8, align 4
  br label %186

161:                                              ; No predecessors!
  br label %162

162:                                              ; preds = %161
  br label %163

163:                                              ; preds = %162, %141
  %164 = load ptr, ptr %5, align 8
  %165 = icmp ne ptr %164, null
  br i1 %165, label %166, label %174

166:                                              ; preds = %163
  %167 = load ptr, ptr %7, align 8
  %168 = getelementptr inbounds %struct.H5T_t, ptr %167, i32 0, i32 1
  %169 = load ptr, ptr %168, align 8
  %170 = getelementptr inbounds %struct.H5T_shared_t, ptr %169, i32 0, i32 8
  %171 = getelementptr inbounds %struct.H5T_atomic_t, ptr %170, i32 0, i32 3
  %172 = load i32, ptr %171, align 8
  %173 = load ptr, ptr %5, align 8
  store i32 %172, ptr %173, align 4
  br label %174

174:                                              ; preds = %166, %163
  %175 = load ptr, ptr %6, align 8
  %176 = icmp ne ptr %175, null
  br i1 %176, label %177, label %185

177:                                              ; preds = %174
  %178 = load ptr, ptr %7, align 8
  %179 = getelementptr inbounds %struct.H5T_t, ptr %178, i32 0, i32 1
  %180 = load ptr, ptr %179, align 8
  %181 = getelementptr inbounds %struct.H5T_shared_t, ptr %180, i32 0, i32 8
  %182 = getelementptr inbounds %struct.H5T_atomic_t, ptr %181, i32 0, i32 4
  %183 = load i32, ptr %182, align 4
  %184 = load ptr, ptr %6, align 8
  store i32 %183, ptr %184, align 4
  br label %185

185:                                              ; preds = %177, %174
  br label %186

186:                                              ; preds = %185, %160, %89, %68, %44
  %187 = load i8, ptr %9, align 1
  %188 = trunc i8 %187 to i1
  %189 = xor i1 %188, true
  %190 = xor i1 %189, true
  %191 = zext i1 %190 to i32
  %192 = sext i32 %191 to i64
  %193 = icmp ne i64 %192, 0
  br i1 %193, label %194, label %196

194:                                              ; preds = %186
  %195 = call i32 @H5CX_pop(i1 noundef zeroext true)
  store i8 0, ptr %9, align 1
  br label %196

196:                                              ; preds = %194, %186
  %197 = load i8, ptr %10, align 1
  %198 = trunc i8 %197 to i1
  %199 = xor i1 %198, true
  %200 = xor i1 %199, true
  %201 = zext i1 %200 to i32
  %202 = sext i32 %201 to i64
  %203 = icmp ne i64 %202, 0
  br i1 %203, label %204, label %206

204:                                              ; preds = %196
  %205 = call i32 @H5E_dump_api_stack()
  br label %206

206:                                              ; preds = %204, %196
  %207 = load i32, ptr %8, align 4
  ret i32 %207
}