; Function Attrs: nounwind uwtable
define range(i32 -1, 1) i32 @H5Tget_pad(i64 noundef %0, ptr noundef writeonly %1, ptr noundef writeonly %2) local_unnamed_addr #0 {
  %4 = load i8, ptr @H5_libinit_g, align 1
  %5 = trunc i8 %4 to i1
  %6 = load i8, ptr @H5_libterm_g, align 1
  %7 = trunc i8 %6 to i1
  %8 = select i1 %5, i1 true, i1 %7
  br i1 %8, label %16, label %9

9:                                                ; preds = %3
  %10 = tail call i32 @H5_init_library() #2
  %11 = icmp slt i32 %10, 0
  br i1 %11, label %12, label %16

12:                                               ; preds = %9
  %13 = load i64, ptr @H5E_FUNC_g, align 8
  %14 = load i64, ptr @H5E_CANTINIT_g, align 8
  %15 = tail call i32 (ptr, ptr, i32, i64, i64, ptr, ...) @H5E_printf_stack(ptr noundef nonnull @.str, ptr noundef nonnull @__func__.H5Tget_pad, i32 noundef 42, i64 noundef %13, i64 noundef %14, ptr noundef nonnull @.str.1) #2
  br label %.thread39

16:                                               ; preds = %9, %3
  %17 = tail call i32 @H5CX_push() #2
  %18 = icmp slt i32 %17, 0
  br i1 %18, label %19, label %23

19:                                               ; preds = %16
  %20 = load i64, ptr @H5E_FUNC_g, align 8
  %21 = load i64, ptr @H5E_CANTSET_g, align 8
  %22 = tail call i32 (ptr, ptr, i32, i64, i64, ptr, ...) @H5E_printf_stack(ptr noundef nonnull @.str, ptr noundef nonnull @__func__.H5Tget_pad, i32 noundef 42, i64 noundef %20, i64 noundef %21, ptr noundef nonnull @.str.2) #2
  br label %.thread39

23:                                               ; preds = %16
  %24 = tail call i32 @H5E_clear_stack() #2
  %25 = tail call ptr @H5I_object_verify(i64 noundef %0, i32 noundef 3) #2
  %26 = icmp eq ptr %25, null
  br i1 %26, label %27, label %.preheader

27:                                               ; preds = %23
  %28 = load i64, ptr @H5E_ARGS_g, align 8
  %29 = load i64, ptr @H5E_BADTYPE_g, align 8
  %30 = tail call i32 (ptr, ptr, i32, i64, i64, ptr, ...) @H5E_printf_stack(ptr noundef nonnull @.str, ptr noundef nonnull @__func__.H5Tget_pad, i32 noundef 46, i64 noundef %28, i64 noundef %29, ptr noundef nonnull @.str.3) #2
  br label %.thread45

.preheader:                                       ; preds = %23, %.preheader
  %.023 = phi ptr [ %34, %.preheader ], [ %25, %23 ]
  %31 = getelementptr inbounds i8, ptr %.023, i64 40
  %32 = load ptr, ptr %31, align 8
  %33 = getelementptr inbounds i8, ptr %32, i64 32
  %34 = load ptr, ptr %33, align 8
  %.not = icmp eq ptr %34, null
  br i1 %.not, label %35, label %.preheader

35:                                               ; preds = %.preheader
  %36 = getelementptr inbounds i8, ptr %.023, i64 40
  %37 = getelementptr inbounds i8, ptr %32, i64 12
  %38 = load i32, ptr %37, align 4
  %.off = add i32 %38, -5
  %switch = icmp ult i32 %.off, 6
  br i1 %switch, label %39, label %43

39:                                               ; preds = %35
  %40 = load i64, ptr @H5E_DATATYPE_g, align 8
  %41 = load i64, ptr @H5E_UNSUPPORTED_g, align 8
  %42 = tail call i32 (ptr, ptr, i32, i64, i64, ptr, ...) @H5E_printf_stack(ptr noundef nonnull @.str, ptr noundef nonnull @__func__.H5Tget_pad, i32 noundef 50, i64 noundef %40, i64 noundef %41, ptr noundef nonnull @.str.4) #2
  br label %.thread45

43:                                               ; preds = %35
  %.not29 = icmp eq ptr %1, null
  br i1 %.not29, label %47, label %44

44:                                               ; preds = %43
  %45 = getelementptr inbounds i8, ptr %32, i64 72
  %46 = load i32, ptr %45, align 8
  store i32 %46, ptr %1, align 4
  br label %47

47:                                               ; preds = %44, %43
  %.not30 = icmp eq ptr %2, null
  br i1 %.not30, label %53, label %48

48:                                               ; preds = %47
  %49 = load ptr, ptr %36, align 8
  %50 = getelementptr inbounds i8, ptr %49, i64 76
  %51 = load i32, ptr %50, align 4
  store i32 %51, ptr %2, align 4
  br label %53

.thread45:                                        ; preds = %39, %27
  %52 = tail call i32 @H5CX_pop(i1 noundef zeroext true) #2
  br label %.thread39

53:                                               ; preds = %47, %48
  %54 = tail call i32 @H5CX_pop(i1 noundef zeroext true) #2
  br label %56

.thread39:                                        ; preds = %19, %12, %.thread45
  %55 = tail call i32 @H5E_dump_api_stack() #2
  br label %56

56:                                               ; preds = %53, %.thread39
  %.0223442 = phi i32 [ -1, %.thread39 ], [ 0, %53 ]
  ret i32 %.0223442
}